target datalayout = "e-m:e-p270:32:32-p271:32:32-p272:64:64-i64:64-i128:128-f80:128-n8:16:32:64-S128"
target triple = "x86_64-pc-linux-gnu"

; Function Attrs: nounwind uwtable
define dso_local i64 @mp_add_ui_dec(ptr noundef %0, i64 noundef %1, i64 noundef %2) #0 {
  %4 = alloca ptr, align 8
  %5 = alloca i64, align 8
  %6 = alloca i64, align 8
  %7 = alloca i64, align 8
  %8 = alloca i64, align 8
  %9 = alloca i64, align 8
  %10 = alloca i64, align 8
  %11 = alloca i64, align 8
  store ptr %0, ptr %4, align 8, !tbaa !28
  store i64 %1, ptr %5, align 8, !tbaa !27
  store i64 %2, ptr %6, align 8, !tbaa !27
  call void @llvm.lifetime.start.p0(i64 8, ptr %7) #10
  store i64 -8446744073709551616, ptr %7, align 8, !tbaa !27
  call void @llvm.lifetime.start.p0(i64 8, ptr %8) #10
  call void @llvm.lifetime.start.p0(i64 8, ptr %9) #10
  call void @llvm.lifetime.start.p0(i64 8, ptr %10) #10
  call void @llvm.lifetime.start.p0(i64 8, ptr %11) #10
  %12 = load i64, ptr %5, align 8, !tbaa !27
  store i64 %12, ptr %9, align 8, !tbaa !27
  store i64 0, ptr %8, align 8, !tbaa !27
  br label %13

13:                                               ; preds = %47, %3
  %14 = load i64, ptr %8, align 8, !tbaa !27
  %15 = load i64, ptr %6, align 8, !tbaa !27
  %16 = icmp slt i64 %14, %15
  br i1 %16, label %17, label %50

17:                                               ; preds = %13
  %18 = load ptr, ptr %4, align 8, !tbaa !28
  %19 = load i64, ptr %8, align 8, !tbaa !27
  %20 = getelementptr inbounds i64, ptr %18, i64 %19
  %21 = load i64, ptr %20, align 8, !tbaa !27
  store i64 %21, ptr %11, align 8, !tbaa !27
  %22 = load i64, ptr %11, align 8, !tbaa !27
  %23 = load i64, ptr %9, align 8, !tbaa !27
  %24 = add i64 %22, %23
  %25 = load i64, ptr %7, align 8, !tbaa !27
  %26 = sub i64 %24, %25
  store i64 %26, ptr %10, align 8, !tbaa !27
  %27 = load i64, ptr %10, align 8, !tbaa !27
  %28 = load i64, ptr %11, align 8, !tbaa !27
  %29 = icmp ule i64 %27, %28
  %30 = zext i1 %29 to i32
  %31 = sext i32 %30 to i64
  store i64 %31, ptr %9, align 8, !tbaa !27
  %32 = load i64, ptr %9, align 8, !tbaa !27
  %33 = icmp ne i64 %32, 0
  br i1 %33, label %38, label %34

34:                                               ; preds = %17
  %35 = load i64, ptr %7, align 8, !tbaa !27
  %36 = load i64, ptr %10, align 8, !tbaa !27
  %37 = add i64 %36, %35
  store i64 %37, ptr %10, align 8, !tbaa !27
  br label %38

38:                                               ; preds = %34, %17
  %39 = load i64, ptr %10, align 8, !tbaa !27
  %40 = load ptr, ptr %4, align 8, !tbaa !28
  %41 = load i64, ptr %8, align 8, !tbaa !27
  %42 = getelementptr inbounds i64, ptr %40, i64 %41
  store i64 %39, ptr %42, align 8, !tbaa !27
  %43 = load i64, ptr %9, align 8, !tbaa !27
  %44 = icmp eq i64 %43, 0
  br i1 %44, label %45, label %46

45:                                               ; preds = %38
  br label %50

46:                                               ; preds = %38
  br label %47

47:                                               ; preds = %46
  %48 = load i64, ptr %8, align 8, !tbaa !27
  %49 = add i64 %48, 1
  store i64 %49, ptr %8, align 8, !tbaa !27
  br label %13, !llvm.loop !108

50:                                               ; preds = %45, %13
  %51 = load i64, ptr %9, align 8, !tbaa !27
  call void @llvm.lifetime.end.p0(i64 8, ptr %11) #10
  call void @llvm.lifetime.end.p0(i64 8, ptr %10) #10
  call void @llvm.lifetime.end.p0(i64 8, ptr %9) #10
  call void @llvm.lifetime.end.p0(i64 8, ptr %8) #10
  call void @llvm.lifetime.end.p0(i64 8, ptr %7) #10
  ret i64 %51
}