; Function Attrs: nofree norecurse nosync nounwind memory(argmem: readwrite) uwtable
define dso_local noundef i64 @mp_add_ui_dec(ptr noundef captures(none) %0, i64 noundef %1, i64 noundef %2) local_unnamed_addr #8 {
  %4 = icmp sgt i64 %2, 0
  br i1 %4, label %.lr.ph, label %._crit_edge

5:                                                ; preds = %.lr.ph
  %6 = add nuw nsw i64 %.024, 1
  %exitcond.not = icmp eq i64 %6, %2
  br i1 %exitcond.not, label %._crit_edge, label %.lr.ph, !llvm.loop !121

.lr.ph:                                           ; preds = %3, %5
  %.024 = phi i64 [ %6, %5 ], [ 0, %3 ]
  %.01923 = phi i64 [ 1, %5 ], [ %1, %3 ]
  %7 = getelementptr inbounds nuw i64, ptr %0, i64 %.024
  %8 = load i64, ptr %7, align 8, !tbaa !33
  %9 = add i64 %8, %.01923
  %10 = add i64 %9, 8446744073709551616
  %.not = icmp ugt i64 %10, %8
  %spec.select = select i1 %.not, i64 %9, i64 %10
  store i64 %spec.select, ptr %7, align 8, !tbaa !33
  br i1 %.not, label %._crit_edge, label %5

._crit_edge:                                      ; preds = %5, %.lr.ph, %3
  %.1 = phi i64 [ %1, %3 ], [ 0, %.lr.ph ], [ 1, %5 ]
  ret i64 %.1
}